; Function Attrs: nounwind uwtable
define ptr @l_Lean_PersistentHashMap_insertAux_traverse___at_Lean_Compiler_LCNF_mkDeclExt___spec__3(i64 noundef %0, ptr noundef readonly captures(none) %1, ptr noundef readonly captures(none) %2, ptr readnone captures(none) %3, ptr noundef %4, ptr noundef %5) local_unnamed_addr #1 {
  %7 = getelementptr i8, ptr %1, i64 8
  %8 = getelementptr inbounds nuw i8, ptr %1, i64 24
  %9 = getelementptr inbounds nuw i8, ptr %2, i64 24
  %10 = mul i64 %0, 5
  %11 = add i64 %10, 59
  %12 = and i64 %11, 63
  br label %13

13:                                               ; preds = %lean_dec.exit35, %6
  %.032 = phi ptr [ %5, %6 ], [ %67, %lean_dec.exit35 ]
  %.030 = phi ptr [ %4, %6 ], [ %.0.i50, %lean_dec.exit35 ]
  %.val = load i64, ptr %7, align 8, !tbaa !14
  %14 = shl i64 %.val, 1
  %15 = or disjoint i64 %14, 1
  %16 = inttoptr i64 %15 to ptr
  %17 = ptrtoint ptr %.030 to i64
  %18 = and i64 %17, 1
  %.not = icmp eq i64 %18, 0
  br i1 %.not, label %lean_dec.exit36.thread, label %lean_dec.exit36, !prof !12

lean_dec.exit36:                                  ; preds = %13
  %.not58 = icmp ult ptr %.030, %16
  br i1 %.not58, label %26, label %.loopexit

lean_dec.exit36.thread:                           ; preds = %13
  %19 = tail call zeroext i1 @lean_nat_big_lt(ptr noundef %.030, ptr noundef nonnull %16) #6
  br i1 %19, label %26, label %.thread

.thread:                                          ; preds = %lean_dec.exit36.thread
  %20 = load i32, ptr %.030, align 4, !tbaa !4
  %21 = icmp sgt i32 %20, 1
  br i1 %21, label %22, label %24, !prof !11

22:                                               ; preds = %.thread
  %23 = add nsw i32 %20, -1
  store i32 %23, ptr %.030, align 4, !tbaa !4
  br label %.loopexit

24:                                               ; preds = %.thread
  %.not.i37 = icmp eq i32 %20, 0
  br i1 %.not.i37, label %.loopexit, label %25

25:                                               ; preds = %24
  tail call void @lean_dec_ref_cold(ptr noundef nonnull %.030) #6
  br label %.loopexit

26:                                               ; preds = %lean_dec.exit36.thread, %lean_dec.exit36
  %27 = lshr i64 %17, 1
  %28 = getelementptr inbounds nuw [0 x ptr], ptr %8, i64 0, i64 %27
  %29 = load ptr, ptr %28, align 8, !tbaa !9
  %30 = ptrtoint ptr %29 to i64
  %31 = and i64 %30, 1
  %.not.i.i = icmp eq i64 %31, 0
  br i1 %.not.i.i, label %32, label %lean_array_fget.exit

32:                                               ; preds = %26
  %.val.i.i.i = load i32, ptr %29, align 4, !tbaa !4
  %33 = icmp sgt i32 %.val.i.i.i, 0
  br i1 %33, label %34, label %36, !prof !11

34:                                               ; preds = %32
  %35 = add nuw i32 %.val.i.i.i, 1
  store i32 %35, ptr %29, align 4, !tbaa !4
  br label %lean_array_fget.exit

36:                                               ; preds = %32
  %.not.i.i.i = icmp eq i32 %.val.i.i.i, 0
  br i1 %.not.i.i.i, label %lean_array_fget.exit, label %37

37:                                               ; preds = %36
  tail call void @lean_inc_ref_cold(ptr noundef nonnull %29) #6
  br label %lean_array_fget.exit

lean_array_fget.exit:                             ; preds = %26, %34, %36, %37
  %38 = getelementptr inbounds nuw [0 x ptr], ptr %9, i64 0, i64 %27
  %39 = load ptr, ptr %38, align 8, !tbaa !9
  %40 = ptrtoint ptr %39 to i64
  %41 = and i64 %40, 1
  %.not.i.i43 = icmp eq i64 %41, 0
  br i1 %.not.i.i43, label %42, label %lean_array_fget.exit46

42:                                               ; preds = %lean_array_fget.exit
  %.val.i.i.i44 = load i32, ptr %39, align 4, !tbaa !4
  %43 = icmp sgt i32 %.val.i.i.i44, 0
  br i1 %43, label %44, label %46, !prof !11

44:                                               ; preds = %42
  %45 = add nuw i32 %.val.i.i.i44, 1
  store i32 %45, ptr %39, align 4, !tbaa !4
  br label %lean_array_fget.exit46

46:                                               ; preds = %42
  %.not.i.i.i45 = icmp eq i32 %.val.i.i.i44, 0
  br i1 %.not.i.i.i45, label %lean_array_fget.exit46, label %47

47:                                               ; preds = %46
  tail call void @lean_inc_ref_cold(ptr noundef nonnull %39) #6
  br label %lean_array_fget.exit46

lean_array_fget.exit46:                           ; preds = %lean_array_fget.exit, %44, %46, %47
  %48 = tail call i64 @l_Lean_Name_hash___override(ptr noundef %29) #6
  %49 = lshr i64 %48, %12
  br i1 %.not, label %59, label %50, !prof !12

50:                                               ; preds = %lean_array_fget.exit46
  %51 = add nuw i64 %27, 1
  %52 = icmp sgt i64 %51, -1
  br i1 %52, label %53, label %57, !prof !11

53:                                               ; preds = %50
  %54 = shl nuw i64 %51, 1
  %55 = or disjoint i64 %54, 1
  %56 = inttoptr i64 %55 to ptr
  br label %lean_dec.exit35

57:                                               ; preds = %50
  %58 = tail call ptr @lean_big_usize_to_nat(i64 noundef %51) #6
  br label %lean_dec.exit35

59:                                               ; preds = %lean_array_fget.exit46
  %60 = tail call ptr @lean_nat_big_add(ptr noundef %.030, ptr noundef nonnull inttoptr (i64 3 to ptr)) #6
  %61 = load i32, ptr %.030, align 4, !tbaa !4
  %62 = icmp sgt i32 %61, 1
  br i1 %62, label %63, label %65, !prof !11

63:                                               ; preds = %59
  %64 = add nsw i32 %61, -1
  store i32 %64, ptr %.030, align 4, !tbaa !4
  br label %lean_dec.exit35

65:                                               ; preds = %59
  %.not.i39 = icmp eq i32 %61, 0
  br i1 %.not.i39, label %lean_dec.exit35, label %66

66:                                               ; preds = %65
  tail call void @lean_dec_ref_cold(ptr noundef nonnull %.030) #6
  br label %lean_dec.exit35

lean_dec.exit35:                                  ; preds = %53, %57, %63, %65, %66
  %.0.i50 = phi ptr [ %60, %63 ], [ %60, %65 ], [ %60, %66 ], [ %58, %57 ], [ %56, %53 ]
  %67 = tail call ptr @l_Lean_PersistentHashMap_insertAux___at_Lean_Compiler_LCNF_mkDeclExt___spec__2(ptr noundef %.032, i64 noundef %49, i64 noundef %0, ptr noundef %29, ptr noundef %39)
  br label %13

.loopexit:                                        ; preds = %lean_dec.exit36, %25, %24, %22
  ret ptr %.032
}